target datalayout = "e-m:e-p270:32:32-p271:32:32-p272:64:64-i64:64-i128:128-f80:128-n8:16:32:64-S128"
target triple = "x86_64-pc-linux-gnu"

%struct.decrypt_data = type { i8, %struct._address, i32, i32, i32, i32, i64, i64, i32, i32, i32, ptr, i32, ptr, i32, [256 x i8], i32, ptr, i32 }
%struct._address = type { i32, i32, ptr, ptr }

; Function Attrs: null_pointer_is_valid sspstrong uwtable
define internal void @free_cookie_value(ptr noundef %0) #0 {
  %2 = alloca ptr, align 8
  %3 = alloca ptr, align 8
  store ptr %0, ptr %2, align 8
  call void @llvm.lifetime.start.p0(i64 8, ptr %3) #16
  %4 = load ptr, ptr %2, align 8
  store ptr %4, ptr %3, align 8
  %5 = load ptr, ptr %3, align 8
  %6 = getelementptr inbounds nuw %struct.decrypt_data, ptr %5, i32 0, i32 11
  %7 = load ptr, ptr %6, align 8
  call void @g_free(ptr noundef %7)
  %8 = load ptr, ptr %3, align 8
  %9 = getelementptr inbounds nuw %struct.decrypt_data, ptr %8, i32 0, i32 13
  %10 = load ptr, ptr %9, align 8
  call void @g_free(ptr noundef %10)
  %11 = load ptr, ptr %3, align 8
  %12 = getelementptr inbounds nuw %struct.decrypt_data, ptr %11, i32 0, i32 17
  %13 = load ptr, ptr %12, align 8
  call void @g_hash_table_destroy(ptr noundef %13)
  %14 = load ptr, ptr %3, align 8
  call void @g_slice_free1(i64 noundef 384, ptr noundef %14)
  call void @llvm.lifetime.end.p0(i64 8, ptr %3) #16
  ret void
}