; Function Attrs: null_pointer_is_valid sspstrong uwtable
define internal void @free_cookie_value(ptr noundef %0) #0 {
  %2 = getelementptr inbounds nuw i8, ptr %0, i64 80
  %3 = load ptr, ptr %2, align 8
  tail call void @g_free(ptr noundef %3)
  %4 = getelementptr inbounds nuw i8, ptr %0, i64 96
  %5 = load ptr, ptr %4, align 8
  tail call void @g_free(ptr noundef %5)
  %6 = getelementptr inbounds nuw i8, ptr %0, i64 368
  %7 = load ptr, ptr %6, align 8
  tail call void @g_hash_table_destroy(ptr noundef %7)
  tail call void @g_slice_free1(i64 noundef 384, ptr noundef %0)
  ret void
}